; Function Attrs: mustprogress nounwind uwtable
define hidden void @_ZN11ZDriverPortC2Ev(ptr noundef nonnull align 8 dereferenceable(136) %0) unnamed_addr #2 align 2 {
  tail call void @llvm.memset.p0.i64(ptr noundef nonnull align 8 dereferenceable(88) %0, i8 0, i64 88, i1 false)
  tail call void @_ZN15PlatformMonitorC1Ev(ptr noundef nonnull align 8 dereferenceable(88) %0) #9
  %2 = getelementptr inbounds i8, ptr %0, i64 88
  store i8 0, ptr %2, align 8
  %3 = getelementptr inbounds i8, ptr %0, i64 92
  store i32 11, ptr %3, align 4
  %4 = getelementptr inbounds i8, ptr %0, i64 96
  %5 = getelementptr inbounds i8, ptr %0, i64 112
  tail call void @llvm.memset.p0.i64(ptr noundef nonnull align 8 dereferenceable(16) %4, i8 0, i64 16, i1 false)
  store ptr %5, ptr %5, align 8
  %6 = getelementptr inbounds i8, ptr %0, i64 120
  store ptr %5, ptr %6, align 8
  %7 = getelementptr inbounds i8, ptr %0, i64 128
  store i64 0, ptr %7, align 8
  ret void
}